target datalayout = "e-m:e-p270:32:32-p271:32:32-p272:64:64-i64:64-i128:128-f80:128-n8:16:32:64-S128"
target triple = "x86_64-pc-linux-gnu"

%struct.Vec_Int_t_ = type { i32, i32, ptr }

@.str.1 = private unnamed_addr constant [2 x i8] c"\0A\00", align 1
@.str.3 = private unnamed_addr constant [74 x i8] c"Kit_TruthToHop(): Converting truth table to AIG has failed for function:\0A\00", align 1

; Function Attrs: nounwind uwtable
define internal void @Vec_IntFree(ptr noundef %0) #0 {
  %2 = alloca ptr, align 8
  store ptr %0, ptr %2, align 8
  %3 = load ptr, ptr %2, align 8
  %4 = getelementptr inbounds %struct.Vec_Int_t_, ptr %3, i32 0, i32 2
  %5 = load ptr, ptr %4, align 8
  %6 = icmp ne ptr %5, null
  br i1 %6, label %7, label %13

7:                                                ; preds = %1
  %8 = load ptr, ptr %2, align 8
  %9 = getelementptr inbounds %struct.Vec_Int_t_, ptr %8, i32 0, i32 2
  %10 = load ptr, ptr %9, align 8
  call void @free(ptr noundef %10) #8
  %11 = load ptr, ptr %2, align 8
  %12 = getelementptr inbounds %struct.Vec_Int_t_, ptr %11, i32 0, i32 2
  store ptr null, ptr %12, align 8
  br label %14

13:                                               ; preds = %1
  br label %14

14:                                               ; preds = %13, %7
  %15 = load ptr, ptr %2, align 8
  %16 = icmp ne ptr %15, null
  br i1 %16, label %17, label %19

17:                                               ; preds = %14
  %18 = load ptr, ptr %2, align 8
  call void @free(ptr noundef %18) #8
  store ptr null, ptr %2, align 8
  br label %20

19:                                               ; preds = %14
  br label %20

20:                                               ; preds = %19, %17
  ret void
}

; Function Attrs: nounwind uwtable
define internal ptr @Vec_IntAlloc(i32 noundef %0) #0 {
  %2 = alloca i32, align 4
  %3 = alloca ptr, align 8
  store i32 %0, ptr %2, align 4
  %4 = call noalias ptr @malloc(i64 noundef 16) #7
  store ptr %4, ptr %3, align 8
  %5 = load i32, ptr %2, align 4
  %6 = icmp sgt i32 %5, 0
  br i1 %6, label %7, label %11

7:                                                ; preds = %1
  %8 = load i32, ptr %2, align 4
  %9 = icmp slt i32 %8, 16
  br i1 %9, label %10, label %11

10:                                               ; preds = %7
  store i32 16, ptr %2, align 4
  br label %11

11:                                               ; preds = %10, %7, %1
  %12 = load ptr, ptr %3, align 8
  %13 = getelementptr inbounds %struct.Vec_Int_t_, ptr %12, i32 0, i32 1
  store i32 0, ptr %13, align 4
  %14 = load i32, ptr %2, align 4
  %15 = load ptr, ptr %3, align 8
  %16 = getelementptr inbounds %struct.Vec_Int_t_, ptr %15, i32 0, i32 0
  store i32 %14, ptr %16, align 8
  %17 = load ptr, ptr %3, align 8
  %18 = getelementptr inbounds %struct.Vec_Int_t_, ptr %17, i32 0, i32 0
  %19 = load i32, ptr %18, align 8
  %20 = icmp ne i32 %19, 0
  br i1 %20, label %21, label %28

21:                                               ; preds = %11
  %22 = load ptr, ptr %3, align 8
  %23 = getelementptr inbounds %struct.Vec_Int_t_, ptr %22, i32 0, i32 0
  %24 = load i32, ptr %23, align 8
  %25 = sext i32 %24 to i64
  %26 = mul i64 4, %25
  %27 = call noalias ptr @malloc(i64 noundef %26) #7
  br label %29

28:                                               ; preds = %11
  br label %29

29:                                               ; preds = %28, %21
  %30 = phi ptr [ %27, %21 ], [ null, %28 ]
  %31 = load ptr, ptr %3, align 8
  %32 = getelementptr inbounds %struct.Vec_Int_t_, ptr %31, i32 0, i32 2
  store ptr %30, ptr %32, align 8
  %33 = load ptr, ptr %3, align 8
  ret ptr %33
}

; Function Attrs: nounwind uwtable
define ptr @Kit_TruthToHop(ptr noundef %0, ptr noundef %1, i32 noundef %2, ptr noundef %3) #0 {
  %5 = alloca ptr, align 8
  %6 = alloca ptr, align 8
  %7 = alloca i32, align 4
  %8 = alloca ptr, align 8
  %9 = alloca ptr, align 8
  %10 = alloca ptr, align 8
  store ptr %0, ptr %5, align 8
  store ptr %1, ptr %6, align 8
  store i32 %2, ptr %7, align 4
  store ptr %3, ptr %8, align 8
  %11 = load ptr, ptr %8, align 8
  %12 = icmp eq ptr %11, null
  br i1 %12, label %13, label %20

13:                                               ; preds = %4
  %14 = call ptr @Vec_IntAlloc(i32 noundef 0)
  store ptr %14, ptr %8, align 8
  %15 = load ptr, ptr %6, align 8
  %16 = load i32, ptr %7, align 4
  %17 = load ptr, ptr %8, align 8
  %18 = call ptr @Kit_TruthToGraph(ptr noundef %15, i32 noundef %16, ptr noundef %17)
  store ptr %18, ptr %10, align 8
  %19 = load ptr, ptr %8, align 8
  call void @Vec_IntFree(ptr noundef %19)
  br label %25

20:                                               ; preds = %4
  %21 = load ptr, ptr %6, align 8
  %22 = load i32, ptr %7, align 4
  %23 = load ptr, ptr %8, align 8
  %24 = call ptr @Kit_TruthToGraph(ptr noundef %21, i32 noundef %22, ptr noundef %23)
  store ptr %24, ptr %10, align 8
  br label %25

25:                                               ; preds = %20, %13
  %26 = load ptr, ptr %10, align 8
  %27 = icmp eq ptr %26, null
  br i1 %27, label %28, label %33

28:                                               ; preds = %25
  %29 = call i32 (ptr, ...) @printf(ptr noundef @.str.3)
  %30 = load ptr, ptr %6, align 8
  %31 = load i32, ptr %7, align 4
  call void @Kit_DsdPrintFromTruth(ptr noundef %30, i32 noundef %31)
  %32 = call i32 (ptr, ...) @printf(ptr noundef @.str.1)
  br label %33

33:                                               ; preds = %28, %25
  %34 = load ptr, ptr %5, align 8
  %35 = load ptr, ptr %10, align 8
  %36 = call ptr @Kit_GraphToHop(ptr noundef %34, ptr noundef %35)
  store ptr %36, ptr %9, align 8
  %37 = load ptr, ptr %10, align 8
  call void @Kit_GraphFree(ptr noundef %37)
  %38 = load ptr, ptr %9, align 8
  ret ptr %38
}