; Function Attrs: nounwind uwtable
define ptr @Kit_TruthToHop(ptr noundef %0, ptr noundef %1, i32 noundef %2, ptr noundef %3) local_unnamed_addr #0 {
  %5 = icmp eq ptr %3, null
  br i1 %5, label %6, label %11

6:                                                ; preds = %4
  %calloc = tail call dereferenceable_or_null(16) ptr @calloc(i64 1, i64 16)
  %7 = getelementptr inbounds nuw i8, ptr %calloc, i64 8
  %8 = tail call ptr @Kit_TruthToGraph(ptr noundef %1, i32 noundef %2, ptr noundef nonnull %calloc) #14
  %9 = load ptr, ptr %7, align 8
  %.not.i = icmp eq ptr %9, null
  br i1 %.not.i, label %Vec_IntFree.exit, label %10

10:                                               ; preds = %6
  tail call void @free(ptr noundef nonnull %9) #14
  br label %Vec_IntFree.exit

Vec_IntFree.exit:                                 ; preds = %6, %10
  tail call void @free(ptr noundef nonnull %calloc) #14
  br label %13

11:                                               ; preds = %4
  %12 = tail call ptr @Kit_TruthToGraph(ptr noundef %1, i32 noundef %2, ptr noundef nonnull %3) #14
  br label %13

13:                                               ; preds = %11, %Vec_IntFree.exit
  %.0 = phi ptr [ %8, %Vec_IntFree.exit ], [ %12, %11 ]
  %14 = icmp eq ptr %.0, null
  br i1 %14, label %.split15, label %.split

.split15:                                         ; preds = %13
  %puts = tail call i32 @puts(ptr nonnull dereferenceable(1) @str.4)
  tail call void @Kit_DsdPrintFromTruth(ptr noundef %1, i32 noundef %2) #14
  %putchar = tail call i32 @putchar(i32 10)
  br label %.split

.split:                                           ; preds = %13, %.split15
  %.0.sink = phi ptr [ null, %.split15 ], [ %.0, %13 ]
  %15 = tail call ptr @Kit_GraphToHop(ptr noundef %0, ptr noundef %.0.sink)
  tail call void @Kit_GraphFree(ptr noundef %.0) #14
  ret ptr %15
}